(dp0
S'Rushed'
p1
cnumpy.core.multiarray
_reconstruct
p2
(cnumpy
ndarray
p3
(I0
tp4
S'b'
p5
tp6
Rp7
(I1
(I1
tp8
cnumpy
dtype
p9
(S'f8'
p10
I0
I1
tp11
Rp12
(I3
S'<'
p13
NNNI-1
I-1
I0
tp14
bI00
S'\x00\x00\x00\xd8V\xfc(@'
p15
tp16
bsS'BentKnees'
p17
g2
(g3
(I0
tp18
g5
tp19
Rp20
(I1
(I1
tp21
g12
I00
S'\x00\x00\x00\x0cv\x9b7@'
p22
tp23
bsS'LegsApart'
p24
g2
(g3
(I0
tp25
g5
tp26
Rp27
(I1
(I1
tp28
g12
I00
S'\x00\x00\x00\x88\xbd\xfc7@'
p29
tp30
bsS'OnToesCrouched'
p31
g2
(g3
(I0
tp32
g5
tp33
Rp34
(I1
(I1
tp35
g12
I00
S'\x00\x00\x00\x00=oP@'
p36
tp37
bsS'WoundedLeg'
p38
g2
(g3
(I0
tp39
g5
tp40
Rp41
(I1
(I1
tp42
g12
I00
S'\x00\x00\x00h\x9c\xf6N@'
p43
tp44
bsS'Gedanbarai'
p45
g2
(g3
(I0
tp46
g5
tp47
Rp48
(I1
(I1
tp49
g12
I00
S'\x00\x00\x00\xc6\xe6]B@'
p50
tp51
bsS'Zombie'
p52
g2
(g3
(I0
tp53
g5
tp54
Rp55
(I1
(I1
tp56
g12
I00
S'\x00\x00\x80~\x8c\x04g@'
p57
tp58
bsS'LeftHop'
p59
g2
(g3
(I0
tp60
g5
tp61
Rp62
(I1
(I1
tp63
g12
I00
S'\x00\x00\x00\x84\xc3c=@'
p64
tp65
bsS'March'
p66
g2
(g3
(I0
tp67
g5
tp68
Rp69
(I1
(I1
tp70
g12
I00
S'\x00\x00\x00\x80\x17\x8e<@'
p71
tp72
bsS'Crouched'
p73
g2
(g3
(I0
tp74
g5
tp75
Rp76
(I1
(I1
tp77
g12
I00
S'\x00\x00\x00\x10xdD@'
p78
tp79
bsS'Joy'
p80
g2
(g3
(I0
tp81
g5
tp82
Rp83
(I1
(I1
tp84
g12
I00
S'\x00\x00\x00\x1c?\x1c2@'
p85
tp86
bsS'Frankenstein'
p87
g2
(g3
(I0
tp88
g5
tp89
Rp90
(I1
(I1
tp91
g12
I00
S'\x00\x00\x00\x0e\x9b\x98B@'
p92
tp93
bsS'DragLeg'
p94
g2
(g3
(I0
tp95
g5
tp96
Rp97
(I1
(I1
tp98
g12
I00
S'\x00\x00\x00\x8cH\xd0:@'
p99
tp100
bsS'Heavyset'
p101
g2
(g3
(I0
tp102
g5
tp103
Rp104
(I1
(I1
tp105
g12
I00
S'\x00\x00\x00\x94\x9f\xe4H@'
p106
tp107
bsS'PrarieDog'
p108
g2
(g3
(I0
tp109
g5
tp110
Rp111
(I1
(I1
tp112
g12
I00
S'\x00\x00\x00\x10\xad\xd91@'
p113
tp114
bsS'SwingShoulders'
p115
g2
(g3
(I0
tp116
g5
tp117
Rp118
(I1
(I1
tp119
g12
I00
S'\x00\x00\x002#\x86@@'
p120
tp121
bsS'Dance3'
p122
g2
(g3
(I0
tp123
g5
tp124
Rp125
(I1
(I1
tp126
g12
I00
S'\x00\x00\x00"\x1dFF@'
p127
tp128
bsS'BentForward'
p129
g2
(g3
(I0
tp130
g5
tp131
Rp132
(I1
(I1
tp133
g12
I00
S'\x00\x00\x00b3nL@'
p134
tp135
bsS'LeanRight'
p136
g2
(g3
(I0
tp137
g5
tp138
Rp139
(I1
(I1
tp140
g12
I00
S'\x00\x00\x00\xb4P\xf23@'
p141
tp142
bsS'Hobble'
p143
g2
(g3
(I0
tp144
g5
tp145
Rp146
(I1
(I1
tp147
g12
I00
S"\x00\x00\x00\xf0\x95\xda'@"
p148
tp149
bsS'Heiansyodan'
p150
g2
(g3
(I0
tp151
g5
tp152
Rp153
(I1
(I1
tp154
g12
I00
S'\x00\x00\x00\x88-N)@'
p155
tp156
bsS'Jaunty'
p157
g2
(g3
(I0
tp158
g5
tp159
Rp160
(I1
(I1
tp161
g12
I00
S"\x00\x00\x00\xe0R\xc6'@"
p162
tp163
bsS'Cool'
p164
g2
(g3
(I0
tp165
g5
tp166
Rp167
(I1
(I1
tp168
g12
I00
S'\x00\x00\x00\xa0\xc8\x17?@'
p169
tp170
bsS'Elated'
p171
g2
(g3
(I0
tp172
g5
tp173
Rp174
(I1
(I1
tp175
g12
I00
S'\x00\x00\x008\xda\xe1(@'
p176
tp177
bsS'Gangly'
p178
g2
(g3
(I0
tp179
g5
tp180
Rp181
(I1
(I1
tp182
g12
I00
S'\x00\x00\x00\x1c\x9e\x1aN@'
p183
tp184
bsS'Quail'
p185
g2
(g3
(I0
tp186
g5
tp187
Rp188
(I1
(I1
tp189
g12
I00
S'\x00\x00\x00\xe8\xfb\xa8"@'
p190
tp191
bsS'PainfulLeftknee'
p192
g2
(g3
(I0
tp193
g5
tp194
Rp195
(I1
(I1
tp196
g12
I00
S'\x00\x00\x00T\xc5h;@'
p197
tp198
bsS'PigeonToed'
p199
g2
(g3
(I0
tp200
g5
tp201
Rp202
(I1
(I1
tp203
g12
I00
S'\x00\x00\x00\xfc\n\xc2<@'
p204
tp205
bsS'Mantis'
p206
g2
(g3
(I0
tp207
g5
tp208
Rp209
(I1
(I1
tp210
g12
I00
S'\x00\x00\x00L\xc2a=@'
p211
tp212
bsS'Cat'
p213
g2
(g3
(I0
tp214
g5
tp215
Rp216
(I1
(I1
tp217
g12
I00
S'\x00\x00\x00\xfc\x89\xb29@'
p218
tp219
bsS'Dinosaur'
p220
g2
(g3
(I0
tp221
g5
tp222
Rp223
(I1
(I1
tp224
g12
I00
S'\x00\x00\x00\xd6\x8d\x89N@'
p225
tp226
bsS'Stuff'
p227
g2
(g3
(I0
tp228
g5
tp229
Rp230
(I1
(I1
tp231
g12
I00
S'\x00\x00\x00\xa8\x08\x07-@'
p232
tp233
bsS'DuckFoot'
p234
g2
(g3
(I0
tp235
g5
tp236
Rp237
(I1
(I1
tp238
g12
I00
S'\x00\x00\x00\xe0J\x94@@'
p239
tp240
bsS'Mawashigeri'
p241
g2
(g3
(I0
tp242
g5
tp243
Rp244
(I1
(I1
tp245
g12
I00
S'\x00\x00\x00\xc0\xef\x8fF@'
p246
tp247
bsS'WildLegs'
p248
g2
(g3
(I0
tp249
g5
tp250
Rp251
(I1
(I1
tp252
g12
I00
S'\x00\x00\x00\xbc:\x1b=@'
p253
tp254
bsS'Balance'
p255
g2
(g3
(I0
tp256
g5
tp257
Rp258
(I1
(I1
tp259
g12
I00
S'\x00\x00\x80uENg@'
p260
tp261
bsS'Squirrel'
p262
g2
(g3
(I0
tp263
g5
tp264
Rp265
(I1
(I1
tp266
g12
I00
S'\x00\x00\x00`\xbaY3@'
p267
tp268
bsS'Roadrunner'
p269
g2
(g3
(I0
tp270
g5
tp271
Rp272
(I1
(I1
tp273
g12
I00
S'\x00\x00\x00\x03"\x8eT@'
p274
tp275
bsS'OnToesBentForward'
p276
g2
(g3
(I0
tp277
g5
tp278
Rp279
(I1
(I1
tp280
g12
I00
S'\x00\x00\x00V\xcf!G@'
p281
tp282
bsS'HurtLeg'
p283
g2
(g3
(I0
tp284
g5
tp285
Rp286
(I1
(I1
tp287
g12
I00
S'\x00\x00\x00Xd\xab=@'
p288
tp289
bsS'Drunk'
p290
g2
(g3
(I0
tp291
g5
tp292
Rp293
(I1
(I1
tp294
g12
I00
S'\x00\x00\x00\x12\xf7\xc6H@'
p295
tp296
bsS'Sneaky'
p297
g2
(g3
(I0
tp298
g5
tp299
Rp300
(I1
(I1
tp301
g12
I00
S'\x00\x00\x00\xa6$\x85C@'
p302
tp303
bsS'Crossover'
p304
g2
(g3
(I0
tp305
g5
tp306
Rp307
(I1
(I1
tp308
g12
I00
S'\x00\x00\x00P\xc0\xbe>@'
p309
tp310
bsS'Bouncy'
p311
g2
(g3
(I0
tp312
g5
tp313
Rp314
(I1
(I1
tp315
g12
I00
S'\x00\x00\x00x\xb6\x134@'
p316
tp317
bsS'Yokogeri'
p318
g2
(g3
(I0
tp319
g5
tp320
Rp321
(I1
(I1
tp322
g12
I00
S'\x00\x00\x00\x98$\xe6(@'
p323
tp324
bsS'WildArms'
p325
g2
(g3
(I0
tp326
g5
tp327
Rp328
(I1
(I1
tp329
g12
I00
S'\x00\x00\x00P;\xa07@'
p330
tp331
bsS'Stern'
p332
g2
(g3
(I0
tp333
g5
tp334
Rp335
(I1
(I1
tp336
g12
I00
S'\x00\x00\x00\xf6\x07q[@'
p337
tp338
bsS'Graceful'
p339
g2
(g3
(I0
tp340
g5
tp341
Rp342
(I1
(I1
tp343
g12
I00
S'\x00\x00\x00\xc6\x9d\xeaB@'
p344
tp345
bsS'Chicken'
p346
g2
(g3
(I0
tp347
g5
tp348
Rp349
(I1
(I1
tp350
g12
I00
S'\x00\x00\x00h\xc7\xae"@'
p351
tp352
bsS'Penguin'
p353
g2
(g3
(I0
tp354
g5
tp355
Rp356
(I1
(I1
tp357
g12
I00
S'\x00\x00\x00\xb4\xa7L9@'
p358
tp359
bs.